; Function Attrs: nounwind uwtable
define internal fastcc void @lookup_fsmonitor_settings(ptr noundef %0) unnamed_addr #0 {
  %2 = alloca ptr, align 8
  %3 = alloca i32, align 4
  call void @llvm.lifetime.start.p0(i64 8, ptr nonnull %2) #9
  store ptr null, ptr %2, align 8, !tbaa !30
  call void @llvm.lifetime.start.p0(i64 4, ptr nonnull %3) #9
  %4 = getelementptr inbounds nuw i8, ptr %0, i64 304
  %5 = load ptr, ptr %4, align 8, !tbaa !4
  %.not = icmp eq ptr %5, null
  br i1 %.not, label %6, label %63

6:                                                ; preds = %1
  %7 = call i32 @repo_config_get_maybe_bool(ptr noundef nonnull %0, ptr noundef nonnull @.str.7, ptr noundef nonnull %3) #9
  switch i32 %7, label %63 [
    i32 0, label %8
    i32 1, label %40
    i32 -1, label %42
  ]

8:                                                ; preds = %6
  %9 = load i32, ptr %3, align 4, !tbaa !31
  %.not13 = icmp eq i32 %9, 0
  br i1 %.not13, label %29, label %10

10:                                               ; preds = %8
  %11 = getelementptr i8, ptr %0, i64 240
  %.val.i = load ptr, ptr %11, align 8, !tbaa !32
  %.not.i.not.i = icmp eq ptr %.val.i, null
  %12 = load ptr, ptr %4, align 8, !tbaa !4
  %.not.i11.i = icmp eq ptr %12, null
  br i1 %.not.i.not.i, label %13, label %18

13:                                               ; preds = %10
  br i1 %.not.i11.i, label %14, label %fsm_settings__set_incompatible.exit.i

14:                                               ; preds = %13
  %15 = call noundef ptr @xcalloc(i64 noundef 1, i64 noundef 16) #9
  store i32 0, ptr %15, align 8, !tbaa !28
  %16 = getelementptr inbounds nuw i8, ptr %15, i64 4
  store i32 0, ptr %16, align 4, !tbaa !33
  store ptr %15, ptr %4, align 8, !tbaa !4
  br label %fsm_settings__set_incompatible.exit.i

fsm_settings__set_incompatible.exit.i:            ; preds = %14, %13
  %17 = phi ptr [ %15, %14 ], [ %12, %13 ]
  store i32 -1, ptr %17, align 8, !tbaa !28
  br label %fsm_settings__set_ipc.exit

18:                                               ; preds = %10
  br i1 %.not.i11.i, label %19, label %22

19:                                               ; preds = %18
  %20 = call noundef ptr @xcalloc(i64 noundef 1, i64 noundef 16) #9
  store i32 0, ptr %20, align 8, !tbaa !28
  %21 = getelementptr inbounds nuw i8, ptr %20, i64 4
  store i32 0, ptr %21, align 4, !tbaa !33
  store ptr %20, ptr %4, align 8, !tbaa !4
  br label %22

22:                                               ; preds = %19, %18
  %23 = phi ptr [ %20, %19 ], [ %12, %18 ]
  store i32 2, ptr %23, align 8, !tbaa !28
  br label %fsm_settings__set_ipc.exit

fsm_settings__set_ipc.exit:                       ; preds = %fsm_settings__set_incompatible.exit.i, %22
  %.sink16.i = phi ptr [ %23, %22 ], [ %17, %fsm_settings__set_incompatible.exit.i ]
  %.sink14.i = phi i32 [ 1, %22 ], [ 2, %fsm_settings__set_incompatible.exit.i ]
  %24 = getelementptr inbounds nuw i8, ptr %.sink16.i, i64 4
  store i32 %.sink14.i, ptr %24, align 4, !tbaa !33
  %25 = getelementptr inbounds nuw i8, ptr %.sink16.i, i64 8
  %26 = load ptr, ptr %25, align 8, !tbaa !34
  call void @free(ptr noundef %26) #9
  %27 = load ptr, ptr %4, align 8, !tbaa !4
  %28 = getelementptr inbounds nuw i8, ptr %27, i64 8
  store ptr null, ptr %28, align 8, !tbaa !34
  br label %63

29:                                               ; preds = %8
  %30 = load ptr, ptr %4, align 8, !tbaa !4
  %.not.i = icmp eq ptr %30, null
  br i1 %.not.i, label %31, label %fsm_settings__set_disabled.exit

31:                                               ; preds = %29
  %32 = call noundef ptr @xcalloc(i64 noundef 1, i64 noundef 16) #9
  store i32 0, ptr %32, align 8, !tbaa !28
  %33 = getelementptr inbounds nuw i8, ptr %32, i64 4
  store i32 0, ptr %33, align 4, !tbaa !33
  store ptr %32, ptr %4, align 8, !tbaa !4
  br label %fsm_settings__set_disabled.exit

fsm_settings__set_disabled.exit:                  ; preds = %29, %31
  %34 = phi ptr [ %32, %31 ], [ %30, %29 ]
  store i32 0, ptr %34, align 8, !tbaa !28
  %35 = getelementptr inbounds nuw i8, ptr %34, i64 4
  store i32 1, ptr %35, align 4, !tbaa !33
  %36 = getelementptr inbounds nuw i8, ptr %34, i64 8
  %37 = load ptr, ptr %36, align 8, !tbaa !34
  call void @free(ptr noundef %37) #9
  %38 = load ptr, ptr %4, align 8, !tbaa !4
  %39 = getelementptr inbounds nuw i8, ptr %38, i64 8
  store ptr null, ptr %39, align 8, !tbaa !34
  br label %63

40:                                               ; preds = %6
  %41 = call ptr @getenv(ptr noundef nonnull @.str.8) #9
  br label %46

42:                                               ; preds = %6
  %43 = call i32 @repo_config_get_pathname(ptr noundef nonnull %0, ptr noundef nonnull @.str.7, ptr noundef nonnull %2) #9
  %.not10 = icmp eq i32 %43, 0
  br i1 %.not10, label %44, label %63

44:                                               ; preds = %42
  %45 = load ptr, ptr %2, align 8, !tbaa !30
  br label %46

46:                                               ; preds = %44, %40
  %.0 = phi ptr [ %45, %44 ], [ %41, %40 ]
  %.not11 = icmp eq ptr %.0, null
  br i1 %.not11, label %50, label %47

47:                                               ; preds = %46
  %48 = load i8, ptr %.0, align 1, !tbaa !35
  %.not12 = icmp eq i8 %48, 0
  br i1 %.not12, label %50, label %49

49:                                               ; preds = %47
  call void @fsm_settings__set_hook(ptr noundef nonnull %0, ptr noundef nonnull %.0)
  br label %61

50:                                               ; preds = %47, %46
  %51 = load ptr, ptr %4, align 8, !tbaa !4
  %.not.i14 = icmp eq ptr %51, null
  br i1 %.not.i14, label %52, label %fsm_settings__set_disabled.exit15

52:                                               ; preds = %50
  %53 = call noundef ptr @xcalloc(i64 noundef 1, i64 noundef 16) #9
  store i32 0, ptr %53, align 8, !tbaa !28
  %54 = getelementptr inbounds nuw i8, ptr %53, i64 4
  store i32 0, ptr %54, align 4, !tbaa !33
  store ptr %53, ptr %4, align 8, !tbaa !4
  br label %fsm_settings__set_disabled.exit15

fsm_settings__set_disabled.exit15:                ; preds = %50, %52
  %55 = phi ptr [ %53, %52 ], [ %51, %50 ]
  store i32 0, ptr %55, align 8, !tbaa !28
  %56 = getelementptr inbounds nuw i8, ptr %55, i64 4
  store i32 1, ptr %56, align 4, !tbaa !33
  %57 = getelementptr inbounds nuw i8, ptr %55, i64 8
  %58 = load ptr, ptr %57, align 8, !tbaa !34
  call void @free(ptr noundef %58) #9
  %59 = load ptr, ptr %4, align 8, !tbaa !4
  %60 = getelementptr inbounds nuw i8, ptr %59, i64 8
  store ptr null, ptr %60, align 8, !tbaa !34
  br label %61

61:                                               ; preds = %fsm_settings__set_disabled.exit15, %49
  %62 = load ptr, ptr %2, align 8, !tbaa !30
  call void @free(ptr noundef %62) #9
  br label %63

63:                                               ; preds = %6, %42, %fsm_settings__set_ipc.exit, %fsm_settings__set_disabled.exit, %1, %61
  call void @llvm.lifetime.end.p0(i64 4, ptr nonnull %3) #9
  call void @llvm.lifetime.end.p0(i64 8, ptr nonnull %2) #9
  ret void
}